; Function Attrs: mustprogress uwtable
define dso_local noundef zeroext i1 @_ZN4Plan14EdgeMaybeReadyESt17_Rb_tree_iteratorISt4pairIKP4EdgeNS_4WantEEEPNSt7__cxx1112basic_stringIcSt11char_traitsIcESaIcEEE(ptr noundef nonnull align 8 dereferenceable(120) %0, ptr captures(none) %1, ptr noundef %2) local_unnamed_addr #2 align 2 {
  %4 = alloca ptr, align 8
  %5 = getelementptr inbounds nuw i8, ptr %1, i64 32
  %6 = load ptr, ptr %5, align 8, !tbaa !92
  %7 = tail call noundef zeroext i1 @_ZNK4Edge14AllInputsReadyEv(ptr noundef nonnull align 8 dereferenceable(168) %6)
  br i1 %7, label %8, label %_ZN4Plan12ScheduleWorkESt17_Rb_tree_iteratorISt4pairIKP4EdgeNS_4WantEEE.exit

8:                                                ; preds = %3
  %9 = getelementptr inbounds nuw i8, ptr %1, i64 40
  %10 = load i32, ptr %9, align 8, !tbaa !95
  switch i32 %10, label %11 [
    i32 0, label %21
    i32 2, label %_ZN4Plan12ScheduleWorkESt17_Rb_tree_iteratorISt4pairIKP4EdgeNS_4WantEEE.exit
  ]

11:                                               ; preds = %8
  store i32 2, ptr %9, align 8, !tbaa !95
  call void @llvm.lifetime.start.p0(i64 8, ptr nonnull %4) #29
  %12 = load ptr, ptr %5, align 8, !tbaa !92
  store ptr %12, ptr %4, align 8, !tbaa !88
  %13 = getelementptr inbounds nuw i8, ptr %12, i64 8
  %14 = load ptr, ptr %13, align 8, !tbaa !140
  %15 = getelementptr inbounds nuw i8, ptr %14, i64 36
  %16 = load i32, ptr %15, align 4, !tbaa !141
  %.not.i = icmp eq i32 %16, 0
  %17 = getelementptr inbounds nuw i8, ptr %0, i64 48
  br i1 %.not.i, label %19, label %18

18:                                               ; preds = %11
  tail call void @_ZN4Pool9DelayEdgeEP4Edge(ptr noundef nonnull align 8 dereferenceable(88) %14, ptr noundef nonnull %12)
  tail call void @_ZN4Pool18RetrieveReadyEdgesEP17EdgePriorityQueue(ptr noundef nonnull align 8 dereferenceable(88) %14, ptr noundef nonnull %17)
  br label %20

19:                                               ; preds = %11
  tail call void @_ZN4Pool13EdgeScheduledERK4Edge(ptr noundef nonnull align 8 dereferenceable(88) %14, ptr noundef nonnull align 8 dereferenceable(168) %12)
  call void @_ZNSt14priority_queueIP4EdgeSt6vectorIS1_SaIS1_EE16EdgePriorityLessE4pushERKS1_(ptr noundef nonnull align 8 dereferenceable(25) %17, ptr noundef nonnull align 8 dereferenceable(8) %4)
  br label %20

20:                                               ; preds = %19, %18
  call void @llvm.lifetime.end.p0(i64 8, ptr nonnull %4) #29
  br label %_ZN4Plan12ScheduleWorkESt17_Rb_tree_iteratorISt4pairIKP4EdgeNS_4WantEEE.exit

21:                                               ; preds = %8
  %22 = tail call noundef zeroext i1 @_ZN4Plan12EdgeFinishedEP4EdgeNS_10EdgeResultEPNSt7__cxx1112basic_stringIcSt11char_traitsIcESaIcEEE(ptr noundef nonnull align 8 dereferenceable(120) %0, ptr noundef nonnull %6, i32 noundef 1, ptr noundef %2)
  br i1 %22, label %_ZN4Plan12ScheduleWorkESt17_Rb_tree_iteratorISt4pairIKP4EdgeNS_4WantEEE.exit, label %23

_ZN4Plan12ScheduleWorkESt17_Rb_tree_iteratorISt4pairIKP4EdgeNS_4WantEEE.exit: ; preds = %8, %20, %21, %3
  br label %23

23:                                               ; preds = %21, %_ZN4Plan12ScheduleWorkESt17_Rb_tree_iteratorISt4pairIKP4EdgeNS_4WantEEE.exit
  %.0 = phi i1 [ true, %_ZN4Plan12ScheduleWorkESt17_Rb_tree_iteratorISt4pairIKP4EdgeNS_4WantEEE.exit ], [ false, %21 ]
  ret i1 %.0
}